target datalayout = "e-m:e-p270:32:32-p271:32:32-p272:64:64-i64:64-i128:128-f80:128-n8:16:32:64-S128"
target triple = "x86_64-pc-linux-gnu"

%struct.nstime_t = type { i64 }

@duckdb_je_nstime_update = constant ptr @nstime_update_impl, align 8

; Function Attrs: nounwind uwtable
define void @duckdb_je_nstime_copy(ptr noundef %0, ptr noundef %1) #0 {
  %3 = alloca ptr, align 8
  %4 = alloca ptr, align 8
  store ptr %0, ptr %3, align 8, !tbaa !3
  store ptr %1, ptr %4, align 8, !tbaa !3
  %5 = load ptr, ptr %4, align 8, !tbaa !3
  call void @nstime_assert_initialized(ptr noundef %5)
  %6 = load ptr, ptr %3, align 8, !tbaa !3
  %7 = load ptr, ptr %4, align 8, !tbaa !3
  call void @llvm.memcpy.p0.p0.i64(ptr align 8 %6, ptr align 8 %7, i64 8, i1 false), !tbaa.struct !11
  %8 = load ptr, ptr %3, align 8, !tbaa !3
  call void @nstime_assert_initialized(ptr noundef %8)
  ret void
}

; Function Attrs: nounwind uwtable
define internal void @nstime_assert_initialized(ptr noundef %0) #0 {
  %2 = alloca ptr, align 8
  store ptr %0, ptr %2, align 8, !tbaa !3
  ret void
}

; Function Attrs: nounwind uwtable
define i64 @duckdb_je_nstime_ns_since(ptr noundef %0) #0 {
  %2 = alloca ptr, align 8
  %3 = alloca %struct.nstime_t, align 8
  store ptr %0, ptr %2, align 8, !tbaa !3
  %4 = load ptr, ptr %2, align 8, !tbaa !3
  call void @nstime_assert_initialized(ptr noundef %4)
  call void @llvm.lifetime.start.p0(i64 8, ptr %3) #6
  %5 = load ptr, ptr %2, align 8, !tbaa !3
  call void @duckdb_je_nstime_copy(ptr noundef %3, ptr noundef %5)
  %6 = load ptr, ptr @duckdb_je_nstime_update, align 8, !tbaa !3
  call void %6(ptr noundef %3)
  br label %7

7:                                                ; preds = %1
  br label %8

8:                                                ; preds = %7
  br label %9

9:                                                ; preds = %8
  %10 = getelementptr inbounds nuw %struct.nstime_t, ptr %3, i32 0, i32 0
  %11 = load i64, ptr %10, align 8, !tbaa !9
  %12 = load ptr, ptr %2, align 8, !tbaa !3
  %13 = getelementptr inbounds nuw %struct.nstime_t, ptr %12, i32 0, i32 0
  %14 = load i64, ptr %13, align 8, !tbaa !9
  %15 = sub i64 %11, %14
  call void @llvm.lifetime.end.p0(i64 8, ptr %3) #6
  ret i64 %15
}