; Function Attrs: nounwind uwtable
define i64 @duckdb_je_nstime_ns_since(ptr noundef readonly captures(none) %0) local_unnamed_addr #3 {
  %2 = alloca %struct.timespec, align 8
  %3 = load i64, ptr %0, align 8, !tbaa !8
  call void @llvm.lifetime.start.p0(i64 16, ptr nonnull %2) #8
  %4 = call i32 @clock_gettime(i32 noundef 6, ptr noundef nonnull %2) #8
  %5 = load i64, ptr %2, align 8, !tbaa !9
  %6 = getelementptr inbounds nuw i8, ptr %2, i64 8
  %7 = load i64, ptr %6, align 8, !tbaa !11
  %8 = mul i64 %5, 1000000000
  %9 = add i64 %8, %7
  call void @llvm.lifetime.end.p0(i64 16, ptr nonnull %2) #8
  %10 = icmp ugt i64 %3, %9
  br i1 %10, label %11, label %nstime_update_impl.exit, !prof !12

11:                                               ; preds = %1
  br label %nstime_update_impl.exit

nstime_update_impl.exit:                          ; preds = %1, %11
  %.sroa.0.0 = phi i64 [ %3, %11 ], [ %9, %1 ]
  %12 = load i64, ptr %0, align 8, !tbaa !3
  %13 = sub i64 %.sroa.0.0, %12
  ret i64 %13
}